target datalayout = "e-m:e-p270:32:32-p271:32:32-p272:64:64-i64:64-i128:128-f80:128-n8:16:32:64-S128"
target triple = "x86_64-pc-linux-gnu"

%struct.server_args = type { ptr, ptr, ptr, i8, i32 }

@x509 = internal global ptr null, align 8
@x509_it = internal global ptr null, align 8
@.str.14 = private unnamed_addr constant [28 x i8] c"../openssl/test/http_test.c\00", align 1
@.str.48 = private unnamed_addr constant [6 x i8] c"/path\00", align 1
@__const.test_http_method.mock_args = private unnamed_addr constant { ptr, ptr, ptr, i8, [3 x i8], i32 } { ptr null, ptr null, ptr null, i8 48, [3 x i8] zeroinitializer, i32 0 }, align 8
@.str.95 = private unnamed_addr constant [6 x i8] c"/%d%s\00", align 1
@.str.96 = private unnamed_addr constant [20 x i8] c"/will-be-redirected\00", align 1
@.str.97 = private unnamed_addr constant [11 x i8] c"text/plain\00", align 1
@.str.98 = private unnamed_addr constant [6 x i8] c"test\0A\00", align 1
@.str.99 = private unnamed_addr constant [6 x i8] c"more\0A\00", align 1
@.str.100 = private unnamed_addr constant [27 x i8] c"application/x-x509-ca-cert\00", align 1
@.str.101 = private unnamed_addr constant [20 x i8] c"http://httpbin.org/\00", align 1
@.str.102 = private unnamed_addr constant [25 x i8] c"text/html; charset=utf-8\00", align 1
@.str.103 = private unnamed_addr constant [50 x i8] c"suggested_status == HTTP_STATUS_CODES_FATAL_ERROR\00", align 1
@.str.104 = private unnamed_addr constant [12 x i8] c"rsp == NULL\00", align 1
@.str.105 = private unnamed_addr constant [36 x i8] c"BIO_gets(rsp, rtext, sizeof(rtext))\00", align 1
@.str.106 = private unnamed_addr constant [25 x i8] c"sizeof(DOCTYPE_HTML) - 1\00", align 1
@.str.107 = private unnamed_addr constant [6 x i8] c"rtext\00", align 1
@.str.108 = private unnamed_addr constant [13 x i8] c"DOCTYPE_HTML\00", align 1
@.str.109 = private unnamed_addr constant [17 x i8] c"<!DOCTYPE html>\0A\00", align 1
@.str.110 = private unnamed_addr constant [18 x i8] c"sizeof(text1) - 1\00", align 1
@.str.111 = private unnamed_addr constant [6 x i8] c"text1\00", align 1
@.str.112 = private unnamed_addr constant [6 x i8] c"rcert\00", align 1
@.str.113 = private unnamed_addr constant [22 x i8] c"X509_cmp(x509, rcert)\00", align 1
@.str.114 = private unnamed_addr constant [2 x i8] c"0\00", align 1

; Function Attrs: inlinehint nounwind uwtable
define internal ptr @ossl_check_CONF_VALUE_freefunc_type(ptr noundef %0) #5 {
  %2 = alloca ptr, align 8
  store ptr %0, ptr %2, align 8, !tbaa !28
  %3 = load ptr, ptr %2, align 8, !tbaa !28
  ret ptr %3
}

; Function Attrs: inlinehint nounwind uwtable
define internal ptr @ossl_check_CONF_VALUE_sk_type(ptr noundef %0) #5 {
  %2 = alloca ptr, align 8
  store ptr %0, ptr %2, align 8, !tbaa !18
  %3 = load ptr, ptr %2, align 8, !tbaa !18
  ret ptr %3
}

; Function Attrs: nounwind uwtable
define internal i32 @test_http_method(i32 noundef %0, i32 noundef %1, i32 noundef %2) #0 {
  %4 = alloca i32, align 4
  %5 = alloca i32, align 4
  %6 = alloca i32, align 4
  %7 = alloca ptr, align 8
  %8 = alloca ptr, align 8
  %9 = alloca %struct.server_args, align 8
  %10 = alloca ptr, align 8
  %11 = alloca ptr, align 8
  %12 = alloca [80 x i8], align 16
  %13 = alloca ptr, align 8
  %14 = alloca ptr, align 8
  %15 = alloca i32, align 4
  %16 = alloca i32, align 4
  %17 = alloca [17 x i8], align 16
  %18 = alloca [7 x i8], align 1
  %19 = alloca ptr, align 8
  store i32 %0, ptr %4, align 4, !tbaa !13
  store i32 %1, ptr %5, align 4, !tbaa !13
  store i32 %2, ptr %6, align 4, !tbaa !13
  call void @llvm.lifetime.start.p0(i64 8, ptr %7) #7
  %20 = call ptr @BIO_s_mem()
  %21 = call ptr @BIO_new(ptr noundef %20)
  store ptr %21, ptr %7, align 8, !tbaa !16
  call void @llvm.lifetime.start.p0(i64 8, ptr %8) #7
  %22 = call ptr @BIO_s_mem()
  %23 = call ptr @BIO_new(ptr noundef %22)
  store ptr %23, ptr %8, align 8, !tbaa !16
  call void @llvm.lifetime.start.p0(i64 32, ptr %9) #7
  call void @llvm.memcpy.p0.p0.i64(ptr align 8 %9, ptr align 8 @__const.test_http_method.mock_args, i64 32, i1 false)
  call void @llvm.lifetime.start.p0(i64 8, ptr %10) #7
  call void @llvm.lifetime.start.p0(i64 8, ptr %11) #7
  call void @llvm.lifetime.start.p0(i64 80, ptr %12) #7
  call void @llvm.lifetime.start.p0(i64 8, ptr %13) #7
  store ptr null, ptr %13, align 8, !tbaa !18
  call void @llvm.lifetime.start.p0(i64 8, ptr %14) #7
  call void @llvm.lifetime.start.p0(i64 4, ptr %15) #7
  store i32 0, ptr %15, align 4, !tbaa !13
  call void @llvm.lifetime.start.p0(i64 4, ptr %16) #7
  %24 = load i32, ptr %5, align 4, !tbaa !13
  %25 = icmp ne i32 %24, 0
  br i1 %25, label %26, label %27

26:                                               ; preds = %3
  br label %27

27:                                               ; preds = %26, %3
  %28 = phi i1 [ false, %3 ], [ false, %26 ]
  %29 = zext i1 %28 to i32
  store i32 %29, ptr %16, align 4, !tbaa !13
  %30 = getelementptr inbounds [80 x i8], ptr %12, i64 0, i64 0
  %31 = load i32, ptr %6, align 4, !tbaa !13
  %32 = load i32, ptr %4, align 4, !tbaa !13
  %33 = icmp sgt i32 %32, 1
  %34 = select i1 %33, ptr @.str.96, ptr @.str.48
  %35 = call i32 (ptr, i64, ptr, ...) @snprintf(ptr noundef %30, i64 noundef 80, ptr noundef @.str.95, i32 noundef %31, ptr noundef %34) #7
  %36 = load i32, ptr %5, align 4, !tbaa !13
  %37 = icmp ne i32 %36, 0
  br i1 %37, label %38, label %58

38:                                               ; preds = %27
  store ptr @.str.97, ptr %14, align 8, !tbaa !11
  %39 = call ptr @BIO_s_mem()
  %40 = call ptr @BIO_new(ptr noundef %39)
  store ptr %40, ptr %10, align 8, !tbaa !16
  %41 = load ptr, ptr %10, align 8, !tbaa !16
  %42 = icmp eq ptr %41, null
  br i1 %42, label %53, label %43

43:                                               ; preds = %38
  %44 = load ptr, ptr %10, align 8, !tbaa !16
  %45 = call i32 @BIO_puts(ptr noundef %44, ptr noundef @.str.98)
  %46 = sext i32 %45 to i64
  %47 = icmp ne i64 %46, 5
  br i1 %47, label %53, label %48

48:                                               ; preds = %43
  %49 = load ptr, ptr %10, align 8, !tbaa !16
  %50 = call i32 @BIO_puts(ptr noundef %49, ptr noundef @.str.99)
  %51 = sext i32 %50 to i64
  %52 = icmp ne i64 %51, 5
  br i1 %52, label %53, label %56

53:                                               ; preds = %48, %43, %38
  %54 = load ptr, ptr %10, align 8, !tbaa !16
  %55 = call i32 @BIO_free(ptr noundef %54)
  store ptr null, ptr %10, align 8, !tbaa !16
  br label %56

56:                                               ; preds = %53, %48
  %57 = getelementptr inbounds nuw %struct.server_args, ptr %9, i32 0, i32 2
  store ptr @.str.98, ptr %57, align 8, !tbaa !20
  br label %63

58:                                               ; preds = %27
  store ptr @.str.100, ptr %14, align 8, !tbaa !11
  %59 = load ptr, ptr @x509_it, align 8, !tbaa !9
  %60 = load ptr, ptr @x509, align 8, !tbaa !4
  %61 = call ptr @ASN1_item_i2d_mem_bio(ptr noundef %59, ptr noundef %60)
  store ptr %61, ptr %10, align 8, !tbaa !16
  %62 = getelementptr inbounds nuw %struct.server_args, ptr %9, i32 0, i32 2
  store ptr null, ptr %62, align 8, !tbaa !20
  br label %63

63:                                               ; preds = %58, %56
  %64 = load ptr, ptr %7, align 8, !tbaa !16
  %65 = icmp eq ptr %64, null
  br i1 %65, label %72, label %66

66:                                               ; preds = %63
  %67 = load ptr, ptr %8, align 8, !tbaa !16
  %68 = icmp eq ptr %67, null
  br i1 %68, label %72, label %69

69:                                               ; preds = %66
  %70 = load ptr, ptr %10, align 8, !tbaa !16
  %71 = icmp eq ptr %70, null
  br i1 %71, label %72, label %73

72:                                               ; preds = %69, %66, %63
  br label %204

73:                                               ; preds = %69
  %74 = load ptr, ptr %8, align 8, !tbaa !16
  %75 = getelementptr inbounds nuw %struct.server_args, ptr %9, i32 0, i32 0
  store ptr %74, ptr %75, align 8, !tbaa !22
  %76 = load ptr, ptr %14, align 8, !tbaa !11
  %77 = getelementptr inbounds nuw %struct.server_args, ptr %9, i32 0, i32 1
  store ptr %76, ptr %77, align 8, !tbaa !23
  %78 = load ptr, ptr %7, align 8, !tbaa !16
  call void @BIO_set_callback_ex(ptr noundef %78, ptr noundef @http_bio_cb_ex)
  %79 = load ptr, ptr %7, align 8, !tbaa !16
  call void @BIO_set_callback_arg(ptr noundef %79, ptr noundef %9)
  %80 = load i32, ptr %4, align 4, !tbaa !13
  %81 = icmp ne i32 %80, 0
  br i1 %81, label %82, label %117

82:                                               ; preds = %73
  %83 = load i32, ptr %16, align 4, !tbaa !13
  %84 = icmp ne i32 %83, 0
  br i1 %84, label %85, label %86

85:                                               ; preds = %82
  br label %88

86:                                               ; preds = %82
  %87 = getelementptr inbounds [80 x i8], ptr %12, i64 0, i64 0
  br label %88

88:                                               ; preds = %86, %85
  %89 = phi ptr [ @.str.101, %85 ], [ %87, %86 ]
  %90 = load i32, ptr %16, align 4, !tbaa !13
  %91 = icmp ne i32 %90, 0
  br i1 %91, label %92, label %93

92:                                               ; preds = %88
  br label %95

93:                                               ; preds = %88
  %94 = load ptr, ptr %7, align 8, !tbaa !16
  br label %95

95:                                               ; preds = %93, %92
  %96 = phi ptr [ null, %92 ], [ %94, %93 ]
  %97 = load i32, ptr %16, align 4, !tbaa !13
  %98 = icmp ne i32 %97, 0
  br i1 %98, label %99, label %100

99:                                               ; preds = %95
  br label %102

100:                                              ; preds = %95
  %101 = load ptr, ptr %8, align 8, !tbaa !16
  br label %102

102:                                              ; preds = %100, %99
  %103 = phi ptr [ null, %99 ], [ %101, %100 ]
  %104 = load ptr, ptr %13, align 8, !tbaa !18
  %105 = load i32, ptr %16, align 4, !tbaa !13
  %106 = icmp ne i32 %105, 0
  br i1 %106, label %107, label %108

107:                                              ; preds = %102
  br label %110

108:                                              ; preds = %102
  %109 = load ptr, ptr %14, align 8, !tbaa !11
  br label %110

110:                                              ; preds = %108, %107
  %111 = phi ptr [ @.str.102, %107 ], [ %109, %108 ]
  %112 = load i32, ptr %5, align 4, !tbaa !13
  %113 = icmp ne i32 %112, 0
  %114 = xor i1 %113, true
  %115 = zext i1 %114 to i32
  %116 = call ptr @OSSL_HTTP_get(ptr noundef %89, ptr noundef null, ptr noundef null, ptr noundef %96, ptr noundef %103, ptr noundef null, ptr noundef null, i32 noundef 0, ptr noundef %104, ptr noundef %111, i32 noundef %115, i64 noundef 102400, i32 noundef 0)
  br label %130

117:                                              ; preds = %73
  %118 = getelementptr inbounds [80 x i8], ptr %12, i64 0, i64 0
  %119 = load ptr, ptr %7, align 8, !tbaa !16
  %120 = load ptr, ptr %8, align 8, !tbaa !16
  %121 = load ptr, ptr %13, align 8, !tbaa !18
  %122 = load ptr, ptr %14, align 8, !tbaa !11
  %123 = load ptr, ptr %10, align 8, !tbaa !16
  %124 = load ptr, ptr %14, align 8, !tbaa !11
  %125 = load i32, ptr %5, align 4, !tbaa !13
  %126 = icmp ne i32 %125, 0
  %127 = xor i1 %126, true
  %128 = zext i1 %127 to i32
  %129 = call ptr @OSSL_HTTP_transfer(ptr noundef null, ptr noundef null, ptr noundef null, ptr noundef %118, i32 noundef 0, ptr noundef null, ptr noundef null, ptr noundef %119, ptr noundef %120, ptr noundef null, ptr noundef null, i32 noundef 0, ptr noundef %121, ptr noundef %122, ptr noundef %123, ptr noundef %124, i32 noundef %128, i64 noundef 102400, i32 noundef 0, i32 noundef 0)
  br label %130

130:                                              ; preds = %117, %110
  %131 = phi ptr [ %116, %110 ], [ %129, %117 ]
  store ptr %131, ptr %11, align 8, !tbaa !16
  %132 = load i32, ptr %6, align 4, !tbaa !13
  %133 = icmp eq i32 %132, 399
  %134 = zext i1 %133 to i32
  %135 = load ptr, ptr %11, align 8, !tbaa !16
  %136 = icmp eq ptr %135, null
  %137 = zext i1 %136 to i32
  %138 = call i32 @test_int_eq(ptr noundef @.str.14, i32 noundef 204, ptr noundef @.str.103, ptr noundef @.str.104, i32 noundef %134, i32 noundef %137)
  %139 = icmp ne i32 %138, 0
  br i1 %139, label %141, label %140

140:                                              ; preds = %130
  br label %204

141:                                              ; preds = %130
  %142 = load i32, ptr %6, align 4, !tbaa !13
  %143 = icmp eq i32 %142, 399
  br i1 %143, label %144, label %145

144:                                              ; preds = %141
  store i32 1, ptr %15, align 4, !tbaa !13
  br label %145

145:                                              ; preds = %144, %141
  %146 = load ptr, ptr %11, align 8, !tbaa !16
  %147 = icmp ne ptr %146, null
  br i1 %147, label %148, label %203

148:                                              ; preds = %145
  %149 = load i32, ptr %4, align 4, !tbaa !13
  %150 = icmp ne i32 %149, 0
  br i1 %150, label %151, label %167

151:                                              ; preds = %148
  %152 = load i32, ptr %16, align 4, !tbaa !13
  %153 = icmp ne i32 %152, 0
  br i1 %153, label %154, label %167

154:                                              ; preds = %151
  call void @llvm.lifetime.start.p0(i64 17, ptr %17) #7
  %155 = load ptr, ptr %11, align 8, !tbaa !16
  %156 = getelementptr inbounds [17 x i8], ptr %17, i64 0, i64 0
  %157 = call i32 @BIO_gets(ptr noundef %155, ptr noundef %156, i32 noundef 17)
  %158 = call i32 @test_int_eq(ptr noundef @.str.14, i32 noundef 213, ptr noundef @.str.105, ptr noundef @.str.106, i32 noundef %157, i32 noundef 16)
  %159 = icmp ne i32 %158, 0
  br i1 %159, label %160, label %164

160:                                              ; preds = %154
  %161 = getelementptr inbounds [17 x i8], ptr %17, i64 0, i64 0
  %162 = call i32 @test_str_eq(ptr noundef @.str.14, i32 noundef 214, ptr noundef @.str.107, ptr noundef @.str.108, ptr noundef %161, ptr noundef @.str.109)
  %163 = icmp ne i32 %162, 0
  br label %164

164:                                              ; preds = %160, %154
  %165 = phi i1 [ false, %154 ], [ %163, %160 ]
  %166 = zext i1 %165 to i32
  store i32 %166, ptr %15, align 4, !tbaa !13
  call void @llvm.lifetime.end.p0(i64 17, ptr %17) #7
  br label %200

167:                                              ; preds = %151, %148
  %168 = load i32, ptr %5, align 4, !tbaa !13
  %169 = icmp ne i32 %168, 0
  br i1 %169, label %170, label %183

170:                                              ; preds = %167
  call void @llvm.lifetime.start.p0(i64 7, ptr %18) #7
  %171 = load ptr, ptr %11, align 8, !tbaa !16
  %172 = getelementptr inbounds [7 x i8], ptr %18, i64 0, i64 0
  %173 = call i32 @BIO_gets(ptr noundef %171, ptr noundef %172, i32 noundef 7)
  %174 = call i32 @test_int_eq(ptr noundef @.str.14, i32 noundef 219, ptr noundef @.str.105, ptr noundef @.str.110, i32 noundef %173, i32 noundef 5)
  %175 = icmp ne i32 %174, 0
  br i1 %175, label %176, label %180

176:                                              ; preds = %170
  %177 = getelementptr inbounds [7 x i8], ptr %18, i64 0, i64 0
  %178 = call i32 @test_str_eq(ptr noundef @.str.14, i32 noundef 220, ptr noundef @.str.107, ptr noundef @.str.111, ptr noundef %177, ptr noundef @.str.98)
  %179 = icmp ne i32 %178, 0
  br label %180

180:                                              ; preds = %176, %170
  %181 = phi i1 [ false, %170 ], [ %179, %176 ]
  %182 = zext i1 %181 to i32
  store i32 %182, ptr %15, align 4, !tbaa !13
  call void @llvm.lifetime.end.p0(i64 7, ptr %18) #7
  br label %199

183:                                              ; preds = %167
  call void @llvm.lifetime.start.p0(i64 8, ptr %19) #7
  %184 = load ptr, ptr %11, align 8, !tbaa !16
  %185 = call ptr @d2i_X509_bio(ptr noundef %184, ptr noundef null)
  store ptr %185, ptr %19, align 8, !tbaa !4
  %186 = load ptr, ptr %19, align 8, !tbaa !4
  %187 = call i32 @test_ptr(ptr noundef @.str.14, i32 noundef 224, ptr noundef @.str.112, ptr noundef %186)
  %188 = icmp ne i32 %187, 0
  br i1 %188, label %189, label %195

189:                                              ; preds = %183
  %190 = load ptr, ptr @x509, align 8, !tbaa !4
  %191 = load ptr, ptr %19, align 8, !tbaa !4
  %192 = call i32 @X509_cmp(ptr noundef %190, ptr noundef %191)
  %193 = call i32 @test_int_eq(ptr noundef @.str.14, i32 noundef 224, ptr noundef @.str.113, ptr noundef @.str.114, i32 noundef %192, i32 noundef 0)
  %194 = icmp ne i32 %193, 0
  br label %195

195:                                              ; preds = %189, %183
  %196 = phi i1 [ false, %183 ], [ %194, %189 ]
  %197 = zext i1 %196 to i32
  store i32 %197, ptr %15, align 4, !tbaa !13
  %198 = load ptr, ptr %19, align 8, !tbaa !4
  call void @X509_free(ptr noundef %198)
  call void @llvm.lifetime.end.p0(i64 8, ptr %19) #7
  br label %199

199:                                              ; preds = %195, %180
  br label %200

200:                                              ; preds = %199, %164
  %201 = load ptr, ptr %11, align 8, !tbaa !16
  %202 = call i32 @BIO_free(ptr noundef %201)
  br label %203

203:                                              ; preds = %200, %145
  br label %204

204:                                              ; preds = %203, %140, %72
  %205 = load ptr, ptr %10, align 8, !tbaa !16
  %206 = call i32 @BIO_free(ptr noundef %205)
  %207 = load ptr, ptr %7, align 8, !tbaa !16
  %208 = call i32 @BIO_free(ptr noundef %207)
  %209 = load ptr, ptr %8, align 8, !tbaa !16
  %210 = call i32 @BIO_free(ptr noundef %209)
  %211 = load ptr, ptr %13, align 8, !tbaa !18
  %212 = call ptr @ossl_check_CONF_VALUE_sk_type(ptr noundef %211)
  %213 = call ptr @ossl_check_CONF_VALUE_freefunc_type(ptr noundef @X509V3_conf_free)
  call void @OPENSSL_sk_pop_free(ptr noundef %212, ptr noundef %213)
  %214 = load i32, ptr %15, align 4, !tbaa !13
  call void @llvm.lifetime.end.p0(i64 4, ptr %16) #7
  call void @llvm.lifetime.end.p0(i64 4, ptr %15) #7
  call void @llvm.lifetime.end.p0(i64 8, ptr %14) #7
  call void @llvm.lifetime.end.p0(i64 8, ptr %13) #7
  call void @llvm.lifetime.end.p0(i64 80, ptr %12) #7
  call void @llvm.lifetime.end.p0(i64 8, ptr %11) #7
  call void @llvm.lifetime.end.p0(i64 8, ptr %10) #7
  call void @llvm.lifetime.end.p0(i64 32, ptr %9) #7
  call void @llvm.lifetime.end.p0(i64 8, ptr %8) #7
  call void @llvm.lifetime.end.p0(i64 8, ptr %7) #7
  ret i32 %214
}