; Function Attrs: nounwind uwtable
define internal fastcc range(i32 0, 2) i32 @test_http_method(i32 noundef range(i32 0, 3) %0, i32 noundef range(i32 0, 2) %1, i32 noundef range(i32 200, 401) %2) unnamed_addr #0 {
  %4 = alloca %struct.server_args, align 8
  %5 = alloca [80 x i8], align 16
  %6 = alloca [7 x i8], align 1
  %7 = tail call ptr @BIO_s_mem() #9
  %8 = tail call ptr @BIO_new(ptr noundef %7) #9
  %9 = tail call ptr @BIO_s_mem() #9
  %10 = tail call ptr @BIO_new(ptr noundef %9) #9
  call void @llvm.lifetime.start.p0(i64 32, ptr nonnull %4) #9
  call void @llvm.memcpy.p0.p0.i64(ptr noundef nonnull align 8 dereferenceable(32) %4, ptr noundef nonnull align 8 dereferenceable(32) @__const.test_http_resp_hdr_limit.mock_args, i64 32, i1 false)
  call void @llvm.lifetime.start.p0(i64 80, ptr nonnull %5) #9
  %11 = icmp samesign ugt i32 %0, 1
  %12 = select i1 %11, ptr @.str.96, ptr @.str.48
  %13 = call i32 (ptr, i64, ptr, ...) @snprintf(ptr noundef nonnull dereferenceable(1) %5, i64 noundef 80, ptr noundef nonnull @.str.95, i32 noundef %2, ptr noundef nonnull %12) #9
  %.not = icmp eq i32 %1, 0
  br i1 %.not, label %24, label %14

14:                                               ; preds = %3
  %15 = tail call ptr @BIO_s_mem() #9
  %16 = tail call ptr @BIO_new(ptr noundef %15) #9
  %17 = icmp eq ptr %16, null
  br i1 %17, label %22, label %18

18:                                               ; preds = %14
  %19 = tail call i32 @BIO_puts(ptr noundef nonnull %16, ptr noundef nonnull @.str.98) #9
  %.not62 = icmp eq i32 %19, 5
  br i1 %.not62, label %20, label %22

20:                                               ; preds = %18
  %21 = tail call i32 @BIO_puts(ptr noundef nonnull %16, ptr noundef nonnull @.str.99) #9
  %.not63 = icmp eq i32 %21, 5
  br i1 %.not63, label %28, label %22

22:                                               ; preds = %20, %18, %14
  %23 = tail call i32 @BIO_free(ptr noundef %16) #9
  br label %28

24:                                               ; preds = %3
  %25 = load ptr, ptr @x509_it, align 8, !tbaa !9
  %26 = load ptr, ptr @x509, align 8, !tbaa !4
  %27 = tail call ptr @ASN1_item_i2d_mem_bio(ptr noundef %25, ptr noundef %26) #9
  br label %28

28:                                               ; preds = %20, %22, %24
  %.sink = phi ptr [ null, %24 ], [ @.str.98, %22 ], [ @.str.98, %20 ]
  %.055 = phi ptr [ @.str.100, %24 ], [ @.str.97, %22 ], [ @.str.97, %20 ]
  %.1 = phi ptr [ %27, %24 ], [ null, %22 ], [ %16, %20 ]
  %29 = getelementptr inbounds nuw i8, ptr %4, i64 16
  store ptr %.sink, ptr %29, align 8, !tbaa !16
  %30 = icmp eq ptr %8, null
  %31 = icmp eq ptr %10, null
  %or.cond = select i1 %30, i1 true, i1 %31
  %32 = icmp eq ptr %.1, null
  %or.cond3 = select i1 %or.cond, i1 true, i1 %32
  br i1 %or.cond3, label %70, label %33

33:                                               ; preds = %28
  store ptr %10, ptr %4, align 8, !tbaa !19
  %34 = getelementptr inbounds nuw i8, ptr %4, i64 8
  store ptr %.055, ptr %34, align 8, !tbaa !20
  tail call void @BIO_set_callback_ex(ptr noundef nonnull %8, ptr noundef nonnull @http_bio_cb_ex) #9
  call void @BIO_set_callback_arg(ptr noundef nonnull %8, ptr noundef nonnull %4) #9
  %.not64 = icmp eq i32 %0, 0
  %35 = xor i32 %1, 1
  br i1 %.not64, label %38, label %36

36:                                               ; preds = %33
  %37 = call ptr @OSSL_HTTP_get(ptr noundef nonnull %5, ptr noundef null, ptr noundef null, ptr noundef nonnull %8, ptr noundef nonnull %10, ptr noundef null, ptr noundef null, i32 noundef 0, ptr noundef null, ptr noundef nonnull %.055, i32 noundef %35, i64 noundef 102400, i32 noundef 0) #9
  br label %40

38:                                               ; preds = %33
  %39 = call ptr @OSSL_HTTP_transfer(ptr noundef null, ptr noundef null, ptr noundef null, ptr noundef nonnull %5, i32 noundef 0, ptr noundef null, ptr noundef null, ptr noundef nonnull %8, ptr noundef nonnull %10, ptr noundef null, ptr noundef null, i32 noundef 0, ptr noundef null, ptr noundef nonnull %.055, ptr noundef nonnull %.1, ptr noundef nonnull %.055, i32 noundef %35, i64 noundef 102400, i32 noundef 0, i32 noundef 0) #9
  br label %40

40:                                               ; preds = %38, %36
  %41 = phi ptr [ %37, %36 ], [ %39, %38 ]
  %42 = icmp eq i32 %2, 399
  %43 = zext i1 %42 to i32
  %44 = icmp eq ptr %41, null
  %45 = zext i1 %44 to i32
  %46 = call i32 @test_int_eq(ptr noundef nonnull @.str.14, i32 noundef 204, ptr noundef nonnull @.str.103, ptr noundef nonnull @.str.104, i32 noundef %43, i32 noundef %45) #9
  %.not65 = icmp eq i32 %46, 0
  %brmerge = or i1 %.not65, %44
  %.mux = select i1 %.not65, i32 0, i32 %43
  br i1 %brmerge, label %70, label %47

47:                                               ; preds = %40
  br i1 %.not, label %57, label %48

48:                                               ; preds = %47
  call void @llvm.lifetime.start.p0(i64 7, ptr nonnull %6) #9
  %49 = call i32 @BIO_gets(ptr noundef nonnull %41, ptr noundef nonnull %6, i32 noundef 7) #9
  %50 = call i32 @test_int_eq(ptr noundef nonnull @.str.14, i32 noundef 219, ptr noundef nonnull @.str.105, ptr noundef nonnull @.str.110, i32 noundef %49, i32 noundef 5) #9
  %.not68 = icmp eq i32 %50, 0
  br i1 %.not68, label %55, label %51

51:                                               ; preds = %48
  %52 = call i32 @test_str_eq(ptr noundef nonnull @.str.14, i32 noundef 220, ptr noundef nonnull @.str.107, ptr noundef nonnull @.str.111, ptr noundef nonnull %6, ptr noundef nonnull @.str.98) #9
  %53 = icmp ne i32 %52, 0
  %54 = zext i1 %53 to i32
  br label %55

55:                                               ; preds = %51, %48
  %56 = phi i32 [ 0, %48 ], [ %54, %51 ]
  call void @llvm.lifetime.end.p0(i64 7, ptr nonnull %6) #9
  br label %68

57:                                               ; preds = %47
  %58 = call ptr @d2i_X509_bio(ptr noundef nonnull %41, ptr noundef null) #9
  %59 = call i32 @test_ptr(ptr noundef nonnull @.str.14, i32 noundef 224, ptr noundef nonnull @.str.112, ptr noundef %58) #9
  %.not67 = icmp eq i32 %59, 0
  br i1 %.not67, label %66, label %60

60:                                               ; preds = %57
  %61 = load ptr, ptr @x509, align 8, !tbaa !4
  %62 = call i32 @X509_cmp(ptr noundef %61, ptr noundef %58) #9
  %63 = call i32 @test_int_eq(ptr noundef nonnull @.str.14, i32 noundef 224, ptr noundef nonnull @.str.113, ptr noundef nonnull @.str.114, i32 noundef %62, i32 noundef 0) #9
  %64 = icmp ne i32 %63, 0
  %65 = zext i1 %64 to i32
  br label %66

66:                                               ; preds = %60, %57
  %67 = phi i32 [ 0, %57 ], [ %65, %60 ]
  call void @X509_free(ptr noundef %58) #9
  br label %68

68:                                               ; preds = %55, %66
  %.2 = phi i32 [ %56, %55 ], [ %67, %66 ]
  %69 = call i32 @BIO_free(ptr noundef nonnull %41) #9
  br label %70

70:                                               ; preds = %40, %68, %28
  %.056 = phi i32 [ 0, %28 ], [ %.2, %68 ], [ %.mux, %40 ]
  %71 = call i32 @BIO_free(ptr noundef %.1) #9
  %72 = call i32 @BIO_free(ptr noundef %8) #9
  %73 = call i32 @BIO_free(ptr noundef %10) #9
  call void @OPENSSL_sk_pop_free(ptr noundef null, ptr noundef nonnull @X509V3_conf_free) #9
  call void @llvm.lifetime.end.p0(i64 80, ptr nonnull %5) #9
  call void @llvm.lifetime.end.p0(i64 32, ptr nonnull %4) #9
  ret i32 %.056
}